; Function Attrs: nounwind uwtable
define ptr @l___private_Lean_Meta_RecursorInfo_0__Lean_Meta_checkMotiveResultType(ptr noundef %0, ptr noundef readonly captures(none) %1, ptr noundef %2, ptr noundef readonly captures(none) %3, ptr noundef %4, ptr noundef %5, ptr noundef %6, ptr noundef %7, ptr noundef %8) local_unnamed_addr #0 {
  %10 = tail call zeroext i8 @l_Lean_Expr_isSort(ptr noundef %2) #6
  %11 = icmp eq i8 %10, 0
  br i1 %11, label %lean_dec.exit, label %lean_dec.exit41

lean_dec.exit41:                                  ; preds = %9
  %12 = getelementptr i8, ptr %1, i64 8
  %.val49 = load i64, ptr %12, align 8, !tbaa !16
  %13 = getelementptr i8, ptr %3, i64 8
  %.val = load i64, ptr %13, align 8, !tbaa !16
  %.unshifted = xor i64 %.val, %.val49
  %.mask = and i64 %.unshifted, 9223372036854775807
  %.not = icmp eq i64 %.mask, 0
  br i1 %.not, label %14, label %lean_dec.exit

14:                                               ; preds = %lean_dec.exit41
  %15 = ptrtoint ptr %0 to i64
  %16 = and i64 %15, 1
  %.not53 = icmp eq i64 %16, 0
  br i1 %.not53, label %17, label %lean_dec.exit40

17:                                               ; preds = %14
  %18 = load i32, ptr %0, align 4, !tbaa !8
  %19 = icmp sgt i32 %18, 1
  br i1 %19, label %20, label %22, !prof !11

20:                                               ; preds = %17
  %21 = add nsw i32 %18, -1
  store i32 %21, ptr %0, align 4, !tbaa !8
  br label %lean_dec.exit40

22:                                               ; preds = %17
  %.not.i45 = icmp eq i32 %18, 0
  br i1 %.not.i45, label %lean_dec.exit40, label %23

23:                                               ; preds = %22
  tail call void @lean_dec_ref_cold(ptr noundef nonnull %0) #6
  br label %lean_dec.exit40

lean_dec.exit40:                                  ; preds = %23, %22, %20, %14
  tail call void @lean_inc_heartbeat() #6
  %24 = tail call noalias ptr @mi_malloc_small(i64 noundef 24) #6
  %25 = icmp eq ptr %24, null
  br i1 %25, label %26, label %27

26:                                               ; preds = %lean_dec.exit40
  tail call void @lean_internal_panic_out_of_memory() #7
  unreachable

27:                                               ; preds = %lean_dec.exit40
  %28 = getelementptr inbounds nuw i8, ptr %24, i64 4
  store i32 1, ptr %24, align 4, !tbaa !8
  store i32 131096, ptr %28, align 4
  %29 = getelementptr inbounds nuw i8, ptr %24, i64 8
  store ptr inttoptr (i64 1 to ptr), ptr %29, align 8, !tbaa !4
  %30 = getelementptr inbounds nuw i8, ptr %24, i64 16
  store ptr %8, ptr %30, align 8, !tbaa !4
  br label %47

lean_dec.exit:                                    ; preds = %9, %lean_dec.exit41
  %31 = tail call ptr @l_Lean_MessageData_ofName(ptr noundef %0) #6
  %32 = load ptr, ptr @l___private_Lean_Meta_RecursorInfo_0__Lean_Meta_checkMotive___closed__2, align 8, !tbaa !4
  tail call void @lean_inc_heartbeat() #6
  %33 = tail call noalias ptr @mi_malloc_small(i64 noundef 24) #6
  %34 = icmp eq ptr %33, null
  br i1 %34, label %35, label %lean_alloc_ctor.exit50

35:                                               ; preds = %lean_dec.exit
  tail call void @lean_internal_panic_out_of_memory() #7
  unreachable

lean_alloc_ctor.exit50:                           ; preds = %lean_dec.exit
  %36 = getelementptr inbounds nuw i8, ptr %33, i64 4
  store i32 1, ptr %33, align 4, !tbaa !8
  store i32 117571608, ptr %36, align 4
  %37 = getelementptr inbounds nuw i8, ptr %33, i64 8
  store ptr %32, ptr %37, align 8, !tbaa !4
  %38 = getelementptr inbounds nuw i8, ptr %33, i64 16
  store ptr %31, ptr %38, align 8, !tbaa !4
  %39 = load ptr, ptr @l___private_Lean_Meta_RecursorInfo_0__Lean_Meta_checkMotiveResultType___closed__2, align 8, !tbaa !4
  tail call void @lean_inc_heartbeat() #6
  %40 = tail call noalias ptr @mi_malloc_small(i64 noundef 24) #6
  %41 = icmp eq ptr %40, null
  br i1 %41, label %42, label %lean_alloc_ctor.exit51

42:                                               ; preds = %lean_alloc_ctor.exit50
  tail call void @lean_internal_panic_out_of_memory() #7
  unreachable

lean_alloc_ctor.exit51:                           ; preds = %lean_alloc_ctor.exit50
  %43 = getelementptr inbounds nuw i8, ptr %40, i64 4
  store i32 1, ptr %40, align 4, !tbaa !8
  store i32 117571608, ptr %43, align 4
  %44 = getelementptr inbounds nuw i8, ptr %40, i64 8
  store ptr %33, ptr %44, align 8, !tbaa !4
  %45 = getelementptr inbounds nuw i8, ptr %40, i64 16
  store ptr %39, ptr %45, align 8, !tbaa !4
  %46 = tail call ptr @l_Lean_throwError___at_Lean_Meta_setInlineAttribute___spec__1(ptr noundef nonnull %40, ptr noundef %4, ptr noundef %5, ptr noundef %6, ptr noundef %7, ptr noundef %8) #6
  br label %47

47:                                               ; preds = %27, %lean_alloc_ctor.exit51
  %.0 = phi ptr [ %46, %lean_alloc_ctor.exit51 ], [ %24, %27 ]
  ret ptr %.0
}